target datalayout = "e-m:e-p270:32:32-p271:32:32-p272:64:64-i64:64-i128:128-f80:128-n8:16:32:64-S128"
target triple = "x86_64-pc-linux-gnu"

%struct.ParseState = type { ptr, ptr, i32, i32, ptr, ptr, ptr, ptr, ptr, ptr, i8, ptr, ptr, ptr, ptr, ptr, ptr, i8, ptr, i32, i32, ptr, ptr, i8, i8, ptr, i8, i8, i8, i8, i8, ptr, ptr, ptr, ptr, ptr, ptr }
%struct.Node = type { i32 }
%struct.Expr = type { i32 }
%union.ListCell = type { ptr }
%struct.List = type { i32, i32, i32, ptr, [0 x %union.ListCell] }
%struct.RowExpr = type { %struct.Expr, ptr, i32, i32, ptr, i32 }

@.str.41 = private unnamed_addr constant [13 x i8] c"parse_expr.c\00", align 1
@.str.111 = private unnamed_addr constant [44 x i8] c"ROW expressions can have at most %d entries\00", align 1
@__func__.transformRowExpr = private unnamed_addr constant [17 x i8] c"transformRowExpr\00", align 1
@.str.112 = private unnamed_addr constant [4 x i8] c"f%d\00", align 1

; Function Attrs: inlinehint nounwind uwtable
define internal i32 @list_length(ptr noundef %0) #4 {
  %2 = alloca ptr, align 8
  store ptr %0, ptr %2, align 8
  %3 = load ptr, ptr %2, align 8
  %4 = icmp ne ptr %3, null
  br i1 %4, label %5, label %9

5:                                                ; preds = %1
  %6 = load ptr, ptr %2, align 8
  %7 = getelementptr inbounds nuw %struct.List, ptr %6, i32 0, i32 1
  %8 = load i32, ptr %7, align 4
  br label %10

9:                                                ; preds = %1
  br label %10

10:                                               ; preds = %9, %5
  %11 = phi i32 [ %8, %5 ], [ 0, %9 ]
  ret i32 %11
}

; Function Attrs: inlinehint nounwind uwtable
define internal ptr @newNode(i64 noundef %0, i32 noundef %1) #4 {
  %3 = alloca i64, align 8
  %4 = alloca i32, align 4
  %5 = alloca ptr, align 8
  store i64 %0, ptr %3, align 8
  store i32 %1, ptr %4, align 4
  call void @llvm.lifetime.start.p0(i64 8, ptr %5) #8
  %6 = load i64, ptr %3, align 8
  %7 = call ptr @palloc0(i64 noundef %6)
  store ptr %7, ptr %5, align 8
  %8 = load i32, ptr %4, align 4
  %9 = load ptr, ptr %5, align 8
  %10 = getelementptr inbounds nuw %struct.Node, ptr %9, i32 0, i32 0
  store i32 %8, ptr %10, align 4
  %11 = load ptr, ptr %5, align 8
  call void @llvm.lifetime.end.p0(i64 8, ptr %5) #8
  ret ptr %11
}

; Function Attrs: nounwind uwtable
define internal ptr @transformRowExpr(ptr noundef %0, ptr noundef %1, i1 noundef zeroext %2) #0 {
  %4 = alloca ptr, align 8
  %5 = alloca ptr, align 8
  %6 = alloca i8, align 1
  %7 = alloca ptr, align 8
  %8 = alloca [16 x i8], align 16
  %9 = alloca i32, align 4
  store ptr %0, ptr %4, align 8
  store ptr %1, ptr %5, align 8
  %10 = zext i1 %2 to i8
  store i8 %10, ptr %6, align 1
  call void @llvm.lifetime.start.p0(i64 8, ptr %7) #8
  call void @llvm.lifetime.start.p0(i64 16, ptr %8) #8
  call void @llvm.lifetime.start.p0(i64 4, ptr %9) #8
  %11 = call ptr @newNode(i64 noundef 40, i32 noundef 36)
  store ptr %11, ptr %7, align 8
  %12 = load ptr, ptr %4, align 8
  %13 = load ptr, ptr %5, align 8
  %14 = getelementptr inbounds nuw %struct.RowExpr, ptr %13, i32 0, i32 1
  %15 = load ptr, ptr %14, align 8
  %16 = load ptr, ptr %4, align 8
  %17 = getelementptr inbounds nuw %struct.ParseState, ptr %16, i32 0, i32 19
  %18 = load i32, ptr %17, align 8
  %19 = load i8, ptr %6, align 1, !range !6, !noundef !7
  %20 = trunc i8 %19 to i1
  %21 = call ptr @transformExpressionList(ptr noundef %12, ptr noundef %15, i32 noundef %18, i1 noundef zeroext %20)
  %22 = load ptr, ptr %7, align 8
  %23 = getelementptr inbounds nuw %struct.RowExpr, ptr %22, i32 0, i32 1
  store ptr %21, ptr %23, align 8
  %24 = load ptr, ptr %7, align 8
  %25 = getelementptr inbounds nuw %struct.RowExpr, ptr %24, i32 0, i32 1
  %26 = load ptr, ptr %25, align 8
  %27 = call i32 @list_length(ptr noundef %26)
  %28 = icmp sgt i32 %27, 1664
  br i1 %28, label %29, label %46

29:                                               ; preds = %3
  br label %30

30:                                               ; preds = %29
  br i1 true, label %31, label %33

31:                                               ; preds = %30
  %32 = call zeroext i1 @errstart_cold(i32 noundef 21, ptr noundef null) #9
  br i1 %32, label %35, label %43

33:                                               ; preds = %30
  %34 = call zeroext i1 @errstart(i32 noundef 21, ptr noundef null)
  br i1 %34, label %35, label %43

35:                                               ; preds = %33, %31
  %36 = call i32 @errcode(i32 noundef 17039621)
  %37 = call i32 (ptr, ...) @errmsg(ptr noundef @.str.111, i32 noundef 1664)
  %38 = load ptr, ptr %4, align 8
  %39 = load ptr, ptr %5, align 8
  %40 = getelementptr inbounds nuw %struct.RowExpr, ptr %39, i32 0, i32 5
  %41 = load i32, ptr %40, align 8
  %42 = call i32 @parser_errposition(ptr noundef %38, i32 noundef %41)
  call void @errfinish(ptr noundef @.str.41, i32 noundef 2184, ptr noundef @__func__.transformRowExpr)
  br label %43

43:                                               ; preds = %35, %33, %31
  unreachable

44:                                               ; No predecessors!
  br label %45

45:                                               ; preds = %44
  br label %46

46:                                               ; preds = %45, %3
  %47 = load ptr, ptr %7, align 8
  %48 = getelementptr inbounds nuw %struct.RowExpr, ptr %47, i32 0, i32 2
  store i32 2249, ptr %48, align 8
  %49 = load ptr, ptr %7, align 8
  %50 = getelementptr inbounds nuw %struct.RowExpr, ptr %49, i32 0, i32 3
  store i32 2, ptr %50, align 4
  %51 = load ptr, ptr %7, align 8
  %52 = getelementptr inbounds nuw %struct.RowExpr, ptr %51, i32 0, i32 4
  store ptr null, ptr %52, align 8
  store i32 1, ptr %9, align 4
  br label %53

53:                                               ; preds = %73, %46
  %54 = load i32, ptr %9, align 4
  %55 = load ptr, ptr %7, align 8
  %56 = getelementptr inbounds nuw %struct.RowExpr, ptr %55, i32 0, i32 1
  %57 = load ptr, ptr %56, align 8
  %58 = call i32 @list_length(ptr noundef %57)
  %59 = icmp sle i32 %54, %58
  br i1 %59, label %60, label %76

60:                                               ; preds = %53
  %61 = getelementptr inbounds [16 x i8], ptr %8, i64 0, i64 0
  %62 = load i32, ptr %9, align 4
  %63 = call i32 (ptr, i64, ptr, ...) @pg_snprintf(ptr noundef %61, i64 noundef 16, ptr noundef @.str.112, i32 noundef %62)
  %64 = load ptr, ptr %7, align 8
  %65 = getelementptr inbounds nuw %struct.RowExpr, ptr %64, i32 0, i32 4
  %66 = load ptr, ptr %65, align 8
  %67 = getelementptr inbounds [16 x i8], ptr %8, i64 0, i64 0
  %68 = call ptr @pstrdup(ptr noundef %67)
  %69 = call ptr @makeString(ptr noundef %68)
  %70 = call ptr @lappend(ptr noundef %66, ptr noundef %69)
  %71 = load ptr, ptr %7, align 8
  %72 = getelementptr inbounds nuw %struct.RowExpr, ptr %71, i32 0, i32 4
  store ptr %70, ptr %72, align 8
  br label %73

73:                                               ; preds = %60
  %74 = load i32, ptr %9, align 4
  %75 = add i32 %74, 1
  store i32 %75, ptr %9, align 4
  br label %53, !llvm.loop !20

76:                                               ; preds = %53
  %77 = load ptr, ptr %5, align 8
  %78 = getelementptr inbounds nuw %struct.RowExpr, ptr %77, i32 0, i32 5
  %79 = load i32, ptr %78, align 8
  %80 = load ptr, ptr %7, align 8
  %81 = getelementptr inbounds nuw %struct.RowExpr, ptr %80, i32 0, i32 5
  store i32 %79, ptr %81, align 8
  %82 = load ptr, ptr %7, align 8
  call void @llvm.lifetime.end.p0(i64 4, ptr %9) #8
  call void @llvm.lifetime.end.p0(i64 16, ptr %8) #8
  call void @llvm.lifetime.end.p0(i64 8, ptr %7) #8
  ret ptr %82
}