; Function Attrs: nounwind uwtable
define internal fastcc noundef ptr @transformRowExpr(ptr noundef %0, ptr noundef readonly captures(none) %1, i1 noundef zeroext %2) unnamed_addr #0 {
  %4 = alloca [16 x i8], align 16
  call void @llvm.lifetime.start.p0(i64 16, ptr nonnull %4) #9
  %5 = tail call noundef ptr @palloc0(i64 noundef 40) #9
  store i32 36, ptr %5, align 4
  %6 = getelementptr inbounds nuw i8, ptr %1, i64 8
  %7 = load ptr, ptr %6, align 8
  %8 = getelementptr inbounds nuw i8, ptr %0, i64 144
  %9 = load i32, ptr %8, align 8
  %10 = tail call ptr @transformExpressionList(ptr noundef %0, ptr noundef %7, i32 noundef %9, i1 noundef zeroext %2) #9
  %11 = getelementptr inbounds nuw i8, ptr %5, i64 8
  store ptr %10, ptr %11, align 8
  %.not.i = icmp eq ptr %10, null
  br i1 %.not.i, label %list_length.exit.thread, label %list_length.exit

list_length.exit:                                 ; preds = %3
  %12 = getelementptr inbounds nuw i8, ptr %10, i64 4
  %13 = load i32, ptr %12, align 4
  %14 = icmp sgt i32 %13, 1664
  br i1 %14, label %15, label %list_length.exit.thread

15:                                               ; preds = %list_length.exit
  %16 = tail call zeroext i1 @errstart_cold(i32 noundef 21, ptr noundef null) #10
  tail call void @llvm.assume(i1 %16)
  %17 = tail call i32 @errcode(i32 noundef 17039621) #9
  %18 = tail call i32 (ptr, ...) @errmsg(ptr noundef nonnull @.str.111, i32 noundef 1664) #9
  %19 = getelementptr inbounds nuw i8, ptr %1, i64 32
  %20 = load i32, ptr %19, align 8
  %21 = tail call i32 @parser_errposition(ptr noundef nonnull %0, i32 noundef %20) #9
  tail call void @errfinish(ptr noundef nonnull @.str.41, i32 noundef 2184, ptr noundef nonnull @__func__.transformRowExpr) #9
  unreachable

list_length.exit.thread:                          ; preds = %3, %list_length.exit
  %22 = getelementptr inbounds nuw i8, ptr %5, i64 16
  store i32 2249, ptr %22, align 8
  %23 = getelementptr inbounds nuw i8, ptr %5, i64 20
  store i32 2, ptr %23, align 4
  %24 = getelementptr inbounds nuw i8, ptr %5, i64 24
  store ptr null, ptr %24, align 8
  br label %25

25:                                               ; preds = %31, %list_length.exit.thread
  %26 = phi ptr [ %10, %list_length.exit.thread ], [ %.pre, %31 ]
  %.0 = phi i32 [ 1, %list_length.exit.thread ], [ %37, %31 ]
  %.not.i19 = icmp eq ptr %26, null
  br i1 %.not.i19, label %list_length.exit20, label %27

27:                                               ; preds = %25
  %28 = getelementptr inbounds nuw i8, ptr %26, i64 4
  %29 = load i32, ptr %28, align 4
  br label %list_length.exit20

list_length.exit20:                               ; preds = %25, %27
  %30 = phi i32 [ %29, %27 ], [ 0, %25 ]
  %.not = icmp sgt i32 %.0, %30
  br i1 %.not, label %38, label %31

31:                                               ; preds = %list_length.exit20
  %32 = call i32 (ptr, i64, ptr, ...) @pg_snprintf(ptr noundef nonnull %4, i64 noundef 16, ptr noundef nonnull @.str.112, i32 noundef %.0) #9
  %33 = load ptr, ptr %24, align 8
  %34 = call ptr @pstrdup(ptr noundef nonnull %4) #9
  %35 = call ptr @makeString(ptr noundef %34) #9
  %36 = call ptr @lappend(ptr noundef %33, ptr noundef %35) #9
  store ptr %36, ptr %24, align 8
  %37 = add i32 %.0, 1
  %.pre = load ptr, ptr %11, align 8
  br label %25, !llvm.loop !10

38:                                               ; preds = %list_length.exit20
  %39 = getelementptr inbounds nuw i8, ptr %1, i64 32
  %40 = load i32, ptr %39, align 8
  %41 = getelementptr inbounds nuw i8, ptr %5, i64 32
  store i32 %40, ptr %41, align 8
  call void @llvm.lifetime.end.p0(i64 16, ptr nonnull %4) #9
  ret ptr %5
}